target datalayout = "e-m:e-p270:32:32-p271:32:32-p272:64:64-i64:64-i128:128-f80:128-n8:16:32:64-S128"
target triple = "x86_64-pc-linux-gnu"

%struct.PJconsts = type <{ ptr, ptr, ptr, ptr, ptr, ptr, ptr, ptr, ptr, ptr, ptr, ptr, i32, [4 x i8], ptr, ptr, ptr, ptr, ptr, ptr, ptr, ptr, double, double, double, double, double, double, double, double, double, double, double, double, double, double, double, double, double, double, double, double, double, double, i32, i32, i32, i32, i32, i32, i32, i32, i32, i32, i32, [4 x i8], ptr, ptr, ptr, ptr, ptr, ptr, double, double, double, double, double, double, double, double, double, double, double, i32, [4 x i8], [7 x double], i32, [4 x i8], ptr, ptr, double, double, i32, [4 x i8], %"class.std::shared_ptr", i8, [7 x i8], double, i8, [7 x i8], %"class.std::__cxx11::basic_string", %"class.std::__cxx11::basic_string", %"class.std::__cxx11::basic_string", i8, [7 x i8], %"class.std::vector", i32, [4 x i8], %"class.std::vector.3", i32, i8, i8, i8, i8 }>
%"class.std::shared_ptr" = type { %"class.std::__shared_ptr" }
%"class.std::__shared_ptr" = type { ptr, %"class.std::__shared_count" }
%"class.std::__shared_count" = type { ptr }
%"class.std::__cxx11::basic_string" = type { %"struct.std::__cxx11::basic_string<char>::_Alloc_hider", i64, %union.anon }
%"struct.std::__cxx11::basic_string<char>::_Alloc_hider" = type { ptr }
%union.anon = type { i64, [8 x i8] }
%"class.std::vector" = type { %"struct.std::_Vector_base" }
%"struct.std::_Vector_base" = type { %"struct.std::_Vector_base<osgeo::proj::operation::GridDescription, std::allocator<osgeo::proj::operation::GridDescription>>::_Vector_impl" }
%"struct.std::_Vector_base<osgeo::proj::operation::GridDescription, std::allocator<osgeo::proj::operation::GridDescription>>::_Vector_impl" = type { %"struct.std::_Vector_base<osgeo::proj::operation::GridDescription, std::allocator<osgeo::proj::operation::GridDescription>>::_Vector_impl_data" }
%"struct.std::_Vector_base<osgeo::proj::operation::GridDescription, std::allocator<osgeo::proj::operation::GridDescription>>::_Vector_impl_data" = type { ptr, ptr, ptr }
%"class.std::vector.3" = type { %"struct.std::_Vector_base.4" }
%"struct.std::_Vector_base.4" = type { %"struct.std::_Vector_base<PJCoordOperation, std::allocator<PJCoordOperation>>::_Vector_impl" }
%"struct.std::_Vector_base<PJCoordOperation, std::allocator<PJCoordOperation>>::_Vector_impl" = type { %"struct.std::_Vector_base<PJCoordOperation, std::allocator<PJCoordOperation>>::_Vector_impl_data" }
%"struct.std::_Vector_base<PJCoordOperation, std::allocator<PJCoordOperation>>::_Vector_impl_data" = type { ptr, ptr, ptr }
%struct.PJ_LP = type { double, double }
%struct.PJ_XY = type { double, double }

; Function Attrs: mustprogress uwtable
define internal { double, double } @_ZL15vandg_s_forward5PJ_LPP8PJconsts(double %0, double %1, ptr noundef %2) #0 {
  %4 = alloca %struct.PJ_XY, align 8
  %5 = alloca %struct.PJ_LP, align 8
  %6 = alloca ptr, align 8
  %7 = alloca double, align 8
  %8 = alloca double, align 8
  %9 = alloca double, align 8
  %10 = alloca double, align 8
  %11 = alloca double, align 8
  %12 = alloca i32, align 4
  %13 = alloca double, align 8
  %14 = getelementptr inbounds { double, double }, ptr %5, i32 0, i32 0
  store double %0, ptr %14, align 8
  %15 = getelementptr inbounds { double, double }, ptr %5, i32 0, i32 1
  store double %1, ptr %15, align 8
  store ptr %2, ptr %6, align 8
  call void @llvm.memset.p0.i64(ptr align 8 %4, i8 0, i64 16, i1 false)
  %16 = getelementptr inbounds %struct.PJ_LP, ptr %5, i32 0, i32 1
  %17 = load double, ptr %16, align 8
  %18 = fdiv double %17, 0x3FF921FB54442D18
  %19 = call double @llvm.fabs.f64(double %18)
  store double %19, ptr %11, align 8
  %20 = load double, ptr %11, align 8
  %21 = fsub double %20, 1.000000e-10
  %22 = fcmp ogt double %21, 1.000000e+00
  br i1 %22, label %23, label %26

23:                                               ; preds = %3
  %24 = load ptr, ptr %6, align 8
  %25 = call i32 @proj_errno_set(ptr noundef %24, i32 noundef 2050)
  br label %196

26:                                               ; preds = %3
  store i32 1, ptr %12, align 4
  %27 = load ptr, ptr %6, align 8
  %28 = getelementptr inbounds %struct.PJconsts, ptr %27, i32 0, i32 44
  %29 = load i32, ptr %28, align 8
  %30 = icmp ne i32 %29, 0
  br i1 %30, label %31, label %37

31:                                               ; preds = %26
  %32 = getelementptr inbounds %struct.PJ_LP, ptr %5, i32 0, i32 0
  %33 = load double, ptr %32, align 8
  %34 = call double @llvm.fabs.f64(double %33)
  %35 = fcmp ogt double %34, 0x400921FB54442D18
  br i1 %35, label %36, label %37

36:                                               ; preds = %31
  store i32 -1, ptr %12, align 4
  br label %37

37:                                               ; preds = %36, %31, %26
  %38 = load double, ptr %11, align 8
  %39 = fcmp ogt double %38, 1.000000e+00
  br i1 %39, label %40, label %41

40:                                               ; preds = %37
  store double 1.000000e+00, ptr %11, align 8
  br label %41

41:                                               ; preds = %40, %37
  %42 = getelementptr inbounds %struct.PJ_LP, ptr %5, i32 0, i32 1
  %43 = load double, ptr %42, align 8
  %44 = call double @llvm.fabs.f64(double %43)
  %45 = fcmp ole double %44, 1.000000e-10
  br i1 %45, label %46, label %51

46:                                               ; preds = %41
  %47 = getelementptr inbounds %struct.PJ_LP, ptr %5, i32 0, i32 0
  %48 = load double, ptr %47, align 8
  %49 = getelementptr inbounds %struct.PJ_XY, ptr %4, i32 0, i32 0
  store double %48, ptr %49, align 8
  %50 = getelementptr inbounds %struct.PJ_XY, ptr %4, i32 0, i32 1
  store double 0.000000e+00, ptr %50, align 8
  br label %195

51:                                               ; preds = %41
  %52 = getelementptr inbounds %struct.PJ_LP, ptr %5, i32 0, i32 0
  %53 = load double, ptr %52, align 8
  %54 = call double @llvm.fabs.f64(double %53)
  %55 = fcmp ole double %54, 1.000000e-10
  br i1 %55, label %61, label %56

56:                                               ; preds = %51
  %57 = load double, ptr %11, align 8
  %58 = fsub double %57, 1.000000e+00
  %59 = call double @llvm.fabs.f64(double %58)
  %60 = fcmp olt double %59, 1.000000e-10
  br i1 %60, label %61, label %78

61:                                               ; preds = %56, %51
  %62 = getelementptr inbounds %struct.PJ_XY, ptr %4, i32 0, i32 0
  store double 0.000000e+00, ptr %62, align 8
  %63 = load double, ptr %11, align 8
  %64 = call double @asin(double noundef %63) #7
  %65 = fmul double 5.000000e-01, %64
  %66 = call double @tan(double noundef %65) #7
  %67 = fmul double 0x400921FB54442D18, %66
  %68 = getelementptr inbounds %struct.PJ_XY, ptr %4, i32 0, i32 1
  store double %67, ptr %68, align 8
  %69 = getelementptr inbounds %struct.PJ_LP, ptr %5, i32 0, i32 1
  %70 = load double, ptr %69, align 8
  %71 = fcmp olt double %70, 0.000000e+00
  br i1 %71, label %72, label %77

72:                                               ; preds = %61
  %73 = getelementptr inbounds %struct.PJ_XY, ptr %4, i32 0, i32 1
  %74 = load double, ptr %73, align 8
  %75 = fneg double %74
  %76 = getelementptr inbounds %struct.PJ_XY, ptr %4, i32 0, i32 1
  store double %75, ptr %76, align 8
  br label %77

77:                                               ; preds = %72, %61
  br label %194

78:                                               ; preds = %56
  %79 = load i32, ptr %12, align 4
  %80 = sitofp i32 %79 to double
  %81 = fmul double 5.000000e-01, %80
  %82 = getelementptr inbounds %struct.PJ_LP, ptr %5, i32 0, i32 0
  %83 = load double, ptr %82, align 8
  %84 = fdiv double 0x400921FB54442D18, %83
  %85 = getelementptr inbounds %struct.PJ_LP, ptr %5, i32 0, i32 0
  %86 = load double, ptr %85, align 8
  %87 = fdiv double %86, 0x400921FB54442D18
  %88 = fsub double %84, %87
  %89 = call double @llvm.fabs.f64(double %88)
  %90 = fmul double %81, %89
  store double %90, ptr %7, align 8
  %91 = load double, ptr %7, align 8
  %92 = load double, ptr %7, align 8
  %93 = fmul double %91, %92
  store double %93, ptr %8, align 8
  %94 = load double, ptr %11, align 8
  %95 = load double, ptr %11, align 8
  %96 = fneg double %94
  %97 = call double @llvm.fmuladd.f64(double %96, double %95, double 1.000000e+00)
  %98 = call double @sqrt(double noundef %97) #7
  store double %98, ptr %9, align 8
  %99 = load double, ptr %9, align 8
  %100 = load double, ptr %11, align 8
  %101 = load double, ptr %9, align 8
  %102 = fadd double %100, %101
  %103 = fsub double %102, 1.000000e+00
  %104 = fdiv double %99, %103
  store double %104, ptr %9, align 8
  %105 = load double, ptr %9, align 8
  %106 = load double, ptr %9, align 8
  %107 = fmul double %105, %106
  store double %107, ptr %10, align 8
  %108 = load double, ptr %9, align 8
  %109 = load double, ptr %11, align 8
  %110 = fdiv double 2.000000e+00, %109
  %111 = fsub double %110, 1.000000e+00
  %112 = fmul double %108, %111
  store double %112, ptr %11, align 8
  %113 = load double, ptr %11, align 8
  %114 = load double, ptr %11, align 8
  %115 = fmul double %113, %114
  store double %115, ptr %11, align 8
  %116 = load double, ptr %11, align 8
  store volatile double %116, ptr %13, align 8
  %117 = load volatile double, ptr %13, align 8
  store double %117, ptr %11, align 8
  %118 = load double, ptr %9, align 8
  %119 = load double, ptr %11, align 8
  %120 = fsub double %118, %119
  %121 = getelementptr inbounds %struct.PJ_XY, ptr %4, i32 0, i32 0
  store double %120, ptr %121, align 8
  %122 = load double, ptr %11, align 8
  %123 = load double, ptr %8, align 8
  %124 = fadd double %122, %123
  store double %124, ptr %9, align 8
  %125 = load double, ptr %7, align 8
  %126 = getelementptr inbounds %struct.PJ_XY, ptr %4, i32 0, i32 0
  %127 = load double, ptr %126, align 8
  %128 = load double, ptr %8, align 8
  %129 = getelementptr inbounds %struct.PJ_XY, ptr %4, i32 0, i32 0
  %130 = load double, ptr %129, align 8
  %131 = fmul double %128, %130
  %132 = getelementptr inbounds %struct.PJ_XY, ptr %4, i32 0, i32 0
  %133 = load double, ptr %132, align 8
  %134 = load double, ptr %9, align 8
  %135 = load double, ptr %10, align 8
  %136 = load double, ptr %11, align 8
  %137 = fsub double %135, %136
  %138 = fmul double %134, %137
  %139 = fneg double %138
  %140 = call double @llvm.fmuladd.f64(double %131, double %133, double %139)
  %141 = call double @sqrt(double noundef %140) #7
  %142 = call double @llvm.fmuladd.f64(double %125, double %127, double %141)
  %143 = call double @llvm.fabs.f64(double %142)
  %144 = fmul double 0x400921FB54442D18, %143
  %145 = load double, ptr %9, align 8
  %146 = fdiv double %144, %145
  %147 = getelementptr inbounds %struct.PJ_XY, ptr %4, i32 0, i32 0
  store double %146, ptr %147, align 8
  %148 = getelementptr inbounds %struct.PJ_LP, ptr %5, i32 0, i32 0
  %149 = load double, ptr %148, align 8
  %150 = fcmp olt double %149, 0.000000e+00
  br i1 %150, label %151, label %156

151:                                              ; preds = %78
  %152 = getelementptr inbounds %struct.PJ_XY, ptr %4, i32 0, i32 0
  %153 = load double, ptr %152, align 8
  %154 = fneg double %153
  %155 = getelementptr inbounds %struct.PJ_XY, ptr %4, i32 0, i32 0
  store double %154, ptr %155, align 8
  br label %156

156:                                              ; preds = %151, %78
  %157 = getelementptr inbounds %struct.PJ_XY, ptr %4, i32 0, i32 0
  %158 = load double, ptr %157, align 8
  %159 = fdiv double %158, 0x400921FB54442D18
  %160 = call double @llvm.fabs.f64(double %159)
  %161 = getelementptr inbounds %struct.PJ_XY, ptr %4, i32 0, i32 1
  store double %160, ptr %161, align 8
  %162 = getelementptr inbounds %struct.PJ_XY, ptr %4, i32 0, i32 1
  %163 = load double, ptr %162, align 8
  %164 = getelementptr inbounds %struct.PJ_XY, ptr %4, i32 0, i32 1
  %165 = load double, ptr %164, align 8
  %166 = load double, ptr %7, align 8
  %167 = call double @llvm.fmuladd.f64(double 2.000000e+00, double %166, double %165)
  %168 = fneg double %163
  %169 = call double @llvm.fmuladd.f64(double %168, double %167, double 1.000000e+00)
  %170 = getelementptr inbounds %struct.PJ_XY, ptr %4, i32 0, i32 1
  store double %169, ptr %170, align 8
  %171 = getelementptr inbounds %struct.PJ_XY, ptr %4, i32 0, i32 1
  %172 = load double, ptr %171, align 8
  %173 = fcmp olt double %172, -1.000000e-10
  br i1 %173, label %174, label %177

174:                                              ; preds = %156
  %175 = load ptr, ptr %6, align 8
  %176 = call i32 @proj_errno_set(ptr noundef %175, i32 noundef 2050)
  br label %196

177:                                              ; preds = %156
  %178 = getelementptr inbounds %struct.PJ_XY, ptr %4, i32 0, i32 1
  %179 = load double, ptr %178, align 8
  %180 = fcmp olt double %179, 0.000000e+00
  br i1 %180, label %181, label %183

181:                                              ; preds = %177
  %182 = getelementptr inbounds %struct.PJ_XY, ptr %4, i32 0, i32 1
  store double 0.000000e+00, ptr %182, align 8
  br label %193

183:                                              ; preds = %177
  %184 = getelementptr inbounds %struct.PJ_XY, ptr %4, i32 0, i32 1
  %185 = load double, ptr %184, align 8
  %186 = call double @sqrt(double noundef %185) #7
  %187 = getelementptr inbounds %struct.PJ_LP, ptr %5, i32 0, i32 1
  %188 = load double, ptr %187, align 8
  %189 = fcmp olt double %188, 0.000000e+00
  %190 = select i1 %189, double 0xC00921FB54442D18, double 0x400921FB54442D18
  %191 = fmul double %186, %190
  %192 = getelementptr inbounds %struct.PJ_XY, ptr %4, i32 0, i32 1
  store double %191, ptr %192, align 8
  br label %193

193:                                              ; preds = %183, %181
  br label %194

194:                                              ; preds = %193, %77
  br label %195

195:                                              ; preds = %194, %46
  br label %196

196:                                              ; preds = %195, %174, %23
  %197 = load { double, double }, ptr %4, align 8
  ret { double, double } %197
}