; Function Attrs: mustprogress uwtable
define internal { double, double } @_ZL15vandg_s_forward5PJ_LPP8PJconsts(double %0, double %1, ptr noundef %2) #0 {
  %4 = alloca double, align 8
  %5 = fdiv double %1, 0x3FF921FB54442D18
  %6 = tail call double @llvm.fabs.f64(double %5)
  %7 = fadd double %6, -1.000000e-10
  %8 = fcmp ogt double %7, 1.000000e+00
  br i1 %8, label %9, label %11

9:                                                ; preds = %3
  %10 = tail call i32 @proj_errno_set(ptr noundef %2, i32 noundef 2050)
  br label %86

11:                                               ; preds = %3
  %12 = getelementptr inbounds i8, ptr %2, i64 344
  %13 = load i32, ptr %12, align 8
  %.not = icmp ne i32 %13, 0
  %14 = tail call double @llvm.fabs.f64(double %0)
  %15 = fcmp ogt double %14, 0x400921FB54442D18
  %or.cond = select i1 %.not, i1 %15, i1 false
  %.0 = select i1 %or.cond, double -5.000000e-01, double 5.000000e-01
  %16 = fcmp ogt double %6, 1.000000e+00
  %.051 = select i1 %16, double 1.000000e+00, double %6
  %17 = tail call double @llvm.fabs.f64(double %1)
  %18 = fcmp ugt double %17, 1.000000e-10
  br i1 %18, label %19, label %86

19:                                               ; preds = %11
  %20 = fcmp ugt double %14, 1.000000e-10
  br i1 %20, label %21, label %25

21:                                               ; preds = %19
  %22 = fadd double %.051, -1.000000e+00
  %23 = tail call double @llvm.fabs.f64(double %22)
  %24 = fcmp olt double %23, 1.000000e-10
  br i1 %24, label %25, label %33

25:                                               ; preds = %21, %19
  %26 = tail call double @asin(double noundef %.051) #6
  %27 = fmul double %26, 5.000000e-01
  %28 = tail call double @tan(double noundef %27) #6
  %29 = fmul double %28, 0x400921FB54442D18
  %30 = fcmp olt double %1, 0.000000e+00
  br i1 %30, label %31, label %86

31:                                               ; preds = %25
  %32 = fneg double %29
  br label %86

33:                                               ; preds = %21
  %34 = insertelement <2 x double> <double 0x400921FB54442D18, double poison>, double %0, i64 1
  %35 = insertelement <2 x double> <double poison, double 0x400921FB54442D18>, double %0, i64 0
  %36 = fdiv <2 x double> %34, %35
  %shift = shufflevector <2 x double> %36, <2 x double> poison, <2 x i32> <i32 1, i32 poison>
  %37 = fsub <2 x double> %36, %shift
  %38 = extractelement <2 x double> %37, i64 0
  %39 = tail call double @llvm.fabs.f64(double %38)
  %40 = fmul double %39, %.0
  %41 = fmul double %40, %40
  %42 = fneg double %.051
  %43 = tail call double @llvm.fmuladd.f64(double %42, double %.051, double 1.000000e+00)
  %44 = tail call double @sqrt(double noundef %43) #6
  %45 = fadd double %.051, %44
  %46 = fadd double %45, -1.000000e+00
  %47 = insertelement <2 x double> <double 2.000000e+00, double poison>, double %44, i64 1
  %48 = insertelement <2 x double> poison, double %.051, i64 0
  %49 = insertelement <2 x double> %48, double %46, i64 1
  %50 = fdiv <2 x double> %47, %49
  %51 = extractelement <2 x double> %50, i64 1
  %52 = fmul double %51, %51
  %53 = extractelement <2 x double> %50, i64 0
  %54 = fadd double %53, -1.000000e+00
  %55 = fmul double %54, %51
  %56 = fmul double %55, %55
  store volatile double %56, ptr %4, align 8
  %.0..0..0..0. = load volatile double, ptr %4, align 8
  %57 = fsub double %51, %.0..0..0..0.
  %58 = fadd double %41, %.0..0..0..0.
  %59 = fmul double %41, %57
  %60 = fsub double %52, %.0..0..0..0.
  %61 = fneg double %58
  %62 = fmul double %60, %61
  %63 = tail call double @llvm.fmuladd.f64(double %59, double %57, double %62)
  %64 = tail call double @sqrt(double noundef %63) #6
  %65 = tail call double @llvm.fmuladd.f64(double %40, double %57, double %64)
  %66 = tail call double @llvm.fabs.f64(double %65)
  %67 = fmul double %66, 0x400921FB54442D18
  %68 = fdiv double %67, %58
  %69 = fcmp olt double %0, 0.000000e+00
  %70 = fneg double %68
  %.sroa.041.0 = select i1 %69, double %70, double %68
  %71 = fdiv double %.sroa.041.0, 0x400921FB54442D18
  %72 = tail call double @llvm.fabs.f64(double %71)
  %73 = tail call double @llvm.fmuladd.f64(double %40, double 2.000000e+00, double %72)
  %74 = fneg double %72
  %75 = tail call double @llvm.fmuladd.f64(double %74, double %73, double 1.000000e+00)
  %76 = fcmp olt double %75, -1.000000e-10
  br i1 %76, label %77, label %79

77:                                               ; preds = %33
  %78 = tail call i32 @proj_errno_set(ptr noundef nonnull %2, i32 noundef 2050)
  br label %86

79:                                               ; preds = %33
  %80 = fcmp olt double %75, 0.000000e+00
  br i1 %80, label %86, label %81

81:                                               ; preds = %79
  %82 = tail call double @sqrt(double noundef %75) #6
  %83 = fcmp olt double %1, 0.000000e+00
  %84 = select i1 %83, double 0xC00921FB54442D18, double 0x400921FB54442D18
  %85 = fmul double %84, %82
  br label %86

86:                                               ; preds = %79, %11, %81, %25, %31, %77, %9
  %.sroa.12.0 = phi double [ 0.000000e+00, %9 ], [ %32, %31 ], [ %29, %25 ], [ %75, %77 ], [ %85, %81 ], [ 0.000000e+00, %11 ], [ 0.000000e+00, %79 ]
  %.sroa.041.1 = phi double [ 0.000000e+00, %9 ], [ 0.000000e+00, %31 ], [ 0.000000e+00, %25 ], [ %.sroa.041.0, %77 ], [ %.sroa.041.0, %81 ], [ %0, %11 ], [ %.sroa.041.0, %79 ]
  %.fca.0.insert = insertvalue { double, double } poison, double %.sroa.041.1, 0
  %.fca.1.insert = insertvalue { double, double } %.fca.0.insert, double %.sroa.12.0, 1
  ret { double, double } %.fca.1.insert
}